(lp1
(lp2
I30
aI19
aI0
aI68
aa(lp3
I38
aI24
aI0
aI86
aa(lp4
I31
aI18
aI0
aI67
aa(lp5
I24
aI15
aI0
aI54
aa(lp6
I24
aI15
aI0
aI54
aa(lp7
I24
aI15
aI0
aI54
aa(lp8
I28
aI20
aI0
aI68
aa(lp9
I26
aI16
aI0
aI58
aa(lp10
I23
aI16
aI0
aI55
aa(lp11
I28
aI16
aI0
aI60
aa(lp12
I31
aI19
aI0
aI69
aa(lp13
I24
aI15
aI0
aI54
aa(lp14
I15
aI8
aI0
aI31
aa(lp15
I9
aI5
aI0
aI19
aa(lp16
I10
aI6
aI0
aI22
aa(lp17
I29
aI17
aI0
aI63
aa(lp18
I14
aI8
aI0
aI30
aa(lp19
I25
aI15
aI0
aI55
aa(lp20
I40
aI27
aI0
aI94
aa(lp21
I26
aI17
aI0
aI60
aa(lp22
I9
aI5
aI0
aI19
aa(lp23
I20
aI11
aI0
aI42
aa(lp24
I15
aI7
aI0
aI29
aa(lp25
I31
aI21
aI0
aI73
aa(lp26
I25
aI16
aI0
aI57
aa(lp27
I22
aI11
aI0
aI44
aa(lp28
I18
aI11
aI0
aI40
aa(lp29
I26
aI18
aI0
aI62
aa(lp30
I16
aI10
aI0
aI36
aa(lp31
I41
aI26
aI0
aI93
aa(lp32
I25
aI14
aI0
aI53
aa(lp33
I29
aI17
aI0
aI63
aa(lp34
I28
aI17
aI0
aI62
aa(lp35
I29
aI17
aI0
aI63
aa(lp36
I27
aI16
aI0
aI59
aa(lp37
I23
aI14
aI0
aI51
aa(lp38
I20
aI13
aI0
aI46
aa(lp39
I15
aI12
aI0
aI39
aa(lp40
I11
aI4
aI0
aI19
aa(lp41
I44
aI28
aI0
aI100
aa(lp42
I25
aI15
aI0
aI55
aa(lp43
I12
aI7
aI0
aI26
aa(lp44
I16
aI10
aI0
aI36
aa(lp45
I30
aI21
aI0
aI72
aa(lp46
I18
aI11
aI0
aI40
aa(lp47
I33
aI19
aI0
aI71
aa(lp48
I24
aI14
aI0
aI52
aa(lp49
I30
aI16
aI0
aI62
aa(lp50
I21
aI13
aI0
aI47
aa(lp51
I25
aI16
aI0
aI57
aa(lp52
I28
aI18
aI0
aI64
aa(lp53
I26
aI15
aI0
aI56
aa(lp54
I28
aI18
aI0
aI64
aa(lp55
I28
aI18
aI0
aI64
aa(lp56
I24
aI15
aI0
aI54
aa(lp57
I48
aI28
aI0
aI104
aa(lp58
I19
aI12
aI0
aI43
aa(lp59
I24
aI16
aI0
aI56
aa(lp60
I31
aI18
aI0
aI67
aa(lp61
I6
aI5
aI0
aI16
aa(lp62
I26
aI15
aI0
aI56
aa(lp63
I19
aI11
aI0
aI41
aa(lp64
I20
aI12
aI0
aI44
aa(lp65
I25
aI15
aI0
aI55
aa(lp66
I9
aI3
aI0
aI15
aa(lp67
I11
aI4
aI0
aI19
aa(lp68
I20
aI11
aI0
aI42
aa(lp69
I20
aI12
aI0
aI44
aa(lp70
I14
aI9
aI0
aI32
aa(lp71
I29
aI16
aI0
aI61
aa(lp72
I10
aI6
aI0
aI22
aa(lp73
I25
aI15
aI0
aI55
aa(lp74
I11
aI5
aI0
aI21
aa(lp75
I22
aI14
aI0
aI50
aa(lp76
I32
aI19
aI0
aI70
aa(lp77
I18
aI10
aI0
aI38
aa(lp78
I8
aI3
aI0
aI14
aa(lp79
I30
aI18
aI0
aI66
aa(lp80
I27
aI17
aI0
aI61
aa(lp81
I12
aI5
aI0
aI22
aa(lp82
I10
aI6
aI0
aI22
aa(lp83
I19
aI14
aI0
aI47
aa(lp84
I32
aI20
aI0
aI72
aa(lp85
I27
aI14
aI0
aI55
aa(lp86
I29
aI18
aI0
aI65
aa(lp87
I61
aI39
aI0
aI139
aa(lp88
I30
aI20
aI0
aI70
aa(lp89
I60
aI37
aI0
aI134
aa(lp90
I27
aI16
aI0
aI59
aa(lp91
I26
aI16
aI0
aI58
aa(lp92
I26
aI15
aI0
aI56
aa(lp93
I42
aI25
aI0
aI92
aa(lp94
I26
aI16
aI0
aI58
aa(lp95
I22
aI15
aI0
aI52
aa(lp96
I21
aI13
aI0
aI47
aa(lp97
I27
aI17
aI0
aI61
aa(lp98
I39
aI27
aI0
aI93
aa(lp99
I35
aI22
aI0
aI79
aa(lp100
I31
aI20
aI0
aI71
aa(lp101
I30
aI17
aI0
aI64
aa(lp102
I29
aI19
aI0
aI67
aa(lp103
I19
aI13
aI0
aI45
aa(lp104
I34
aI21
aI0
aI76
aa(lp105
I18
aI11
aI0
aI40
aa(lp106
I21
aI12
aI0
aI45
aa(lp107
I20
aI11
aI0
aI42
aa(lp108
I27
aI17
aI0
aI61
aa(lp109
I41
aI26
aI0
aI93
aa(lp110
I16
aI11
aI0
aI38
aa(lp111
I7
aI4
aI0
aI15
aa(lp112
I12
aI7
aI0
aI26
aa(lp113
I17
aI11
aI0
aI39
aa(lp114
I9
aI5
aI0
aI19
aa(lp115
I30
aI18
aI0
aI66
aa(lp116
I24
aI17
aI0
aI58
aa(lp117
I24
aI17
aI0
aI58
aa(lp118
I34
aI21
aI0
aI76
aa(lp119
I24
aI17
aI0
aI58
aa(lp120
I19
aI11
aI0
aI41
aa(lp121
I10
aI4
aI0
aI18
aa(lp122
I8
aI4
aI0
aI16
aa(lp123
I29
aI17
aI0
aI63
aa(lp124
I47
aI29
aI0
aI105
aa(lp125
I16
aI8
aI0
aI32
aa(lp126
I59
aI36
aI0
aI131
aa(lp127
I17
aI10
aI0
aI37
aa(lp128
I5
aI4
aI0
aI13
aa(lp129
I31
aI18
aI0
aI67
aa(lp130
I28
aI17
aI0
aI62
aa(lp131
I31
aI19
aI0
aI69
aa(lp132
I22
aI14
aI0
aI50
aa(lp133
I30
aI20
aI0
aI70
aa(lp134
I29
aI19
aI0
aI67
aa(lp135
I23
aI13
aI0
aI49
aa(lp136
I37
aI24
aI0
aI85
aa(lp137
I23
aI13
aI0
aI49
aa(lp138
I14
aI9
aI0
aI32
aa(lp139
I25
aI14
aI0
aI53
aa(lp140
I19
aI12
aI0
aI43
aa(lp141
I26
aI17
aI0
aI60
aa(lp142
I23
aI14
aI0
aI51
aa(lp143
I9
aI5
aI0
aI19
aa(lp144
I7
aI4
aI0
aI15
aa(lp145
I10
aI7
aI0
aI24
aa(lp146
I30
aI16
aI0
aI62
aa(lp147
I36
aI22
aI0
aI80
aa(lp148
I19
aI12
aI0
aI43
aa(lp149
I32
aI20
aI0
aI72
aa(lp150
I23
aI13
aI0
aI49
aa(lp151
I21
aI15
aI0
aI51
aa(lp152
I24
aI13
aI0
aI50
aa(lp153
I27
aI17
aI0
aI61
aa(lp154
I16
aI9
aI0
aI34
aa(lp155
I15
aI9
aI0
aI33
aa(lp156
I29
aI20
aI0
aI69
aa(lp157
I17
aI10
aI0
aI37
aa(lp158
I22
aI12
aI0
aI46
aa(lp159
I25
aI15
aI0
aI55
aa(lp160
I8
aI4
aI0
aI16
aa(lp161
I19
aI11
aI0
aI41
aa(lp162
I24
aI17
aI0
aI58
aa(lp163
I14
aI8
aI0
aI30
aa(lp164
I24
aI15
aI0
aI54
aa(lp165
I43
aI27
aI0
aI97
aa(lp166
I23
aI15
aI0
aI53
aa(lp167
I16
aI9
aI0
aI34
aa(lp168
I14
aI9
aI0
aI32
aa(lp169
I32
aI19
aI0
aI70
aa(lp170
I32
aI20
aI0
aI72
aa(lp171
I31
aI20
aI0
aI71
aa(lp172
I19
aI12
aI0
aI43
aa(lp173
I20
aI11
aI0
aI42
aa(lp174
I17
aI9
aI0
aI35
aa(lp175
I6
aI5
aI0
aI16
aa(lp176
I11
aI5
aI0
aI21
aa(lp177
I24
aI13
aI0
aI50
aa(lp178
I20
aI12
aI0
aI44
aa(lp179
I33
aI22
aI0
aI77
aa(lp180
I31
aI17
aI0
aI65
aa(lp181
I31
aI17
aI0
aI65
aa(lp182
I38
aI25
aI0
aI88
aa(lp183
I40
aI24
aI0
aI88
aa(lp184
I40
aI26
aI0
aI92
aa(lp185
I31
aI19
aI0
aI69
aa(lp186
I15
aI10
aI0
aI35
aa(lp187
I18
aI10
aI0
aI38
aa(lp188
I30
aI21
aI0
aI72
aa(lp189
I42
aI25
aI0
aI92
aa(lp190
I24
aI15
aI0
aI54
aa(lp191
I19
aI11
aI0
aI41
aa(lp192
I61
aI37
aI0
aI135
aa(lp193
I17
aI11
aI0
aI39
aa(lp194
I16
aI10
aI0
aI36
aa(lp195
I20
aI11
aI0
aI42
aa(lp196
I28
aI19
aI0
aI66
aa(lp197
I10
aI6
aI0
aI22
aa(lp198
I26
aI16
aI0
aI58
aa(lp199
I24
aI14
aI0
aI52
aa(lp200
I24
aI15
aI0
aI54
aa(lp201
I37
aI23
aI0
aI83
aa(lp202
I24
aI15
aI0
aI54
aa(lp203
I15
aI10
aI0
aI35
aa(lp204
I22
aI14
aI0
aI50
aa(lp205
I17
aI12
aI0
aI41
aa(lp206
I41
aI25
aI0
aI91
aa(lp207
I127
aI85
aI0
aI297
aa(lp208
I9
aI3
aI0
aI15
aa(lp209
I23
aI14
aI0
aI51
aa(lp210
I32
aI21
aI0
aI74
aa(lp211
I27
aI20
aI0
aI67
aa(lp212
I12
aI8
aI0
aI28
aa(lp213
I165
aI109
aI0
aI383
aa(lp214
I26
aI16
aI0
aI58
aa(lp215
I26
aI17
aI0
aI60
aa(lp216
I21
aI12
aI0
aI45
aa(lp217
I18
aI11
aI0
aI40
aa(lp218
I34
aI22
aI0
aI78
aa(lp219
I28
aI16
aI0
aI60
aa(lp220
I9
aI4
aI0
aI17
aa(lp221
I33
aI21
aI0
aI75
aa(lp222
I9
aI6
aI0
aI21
aa(lp223
I27
aI16
aI0
aI59
aa(lp224
I19
aI11
aI0
aI41
aa(lp225
I26
aI16
aI0
aI58
aa(lp226
I24
aI15
aI0
aI54
aa(lp227
I15
aI10
aI0
aI35
aa(lp228
I17
aI10
aI0
aI37
aa(lp229
I37
aI22
aI0
aI81
aa(lp230
I27
aI16
aI0
aI59
aa(lp231
I25
aI16
aI0
aI57
aa(lp232
I39
aI24
aI0
aI87
aa(lp233
I40
aI23
aI0
aI86
aa(lp234
I23
aI16
aI0
aI55
aa(lp235
I28
aI17
aI0
aI62
aa(lp236
I9
aI6
aI0
aI21
aa(lp237
I9
aI5
aI0
aI19
aa(lp238
I26
aI16
aI0
aI58
aa(lp239
I12
aI7
aI0
aI26
aa(lp240
I29
aI19
aI0
aI67
aa(lp241
I20
aI11
aI0
aI42
aa(lp242
I11
aI9
aI0
aI29
aa(lp243
I29
aI16
aI0
aI61
aa(lp244
I18
aI11
aI0
aI40
aa(lp245
I22
aI12
aI0
aI46
aa(lp246
I27
aI19
aI0
aI65
aa(lp247
I122
aI75
aI0
aI272
aa(lp248
I25
aI16
aI0
aI57
aa(lp249
I10
aI5
aI0
aI20
aa(lp250
I27
aI17
aI0
aI61
aa(lp251
I10
aI5
aI0
aI20
aa(lp252
I29
aI20
aI0
aI69
aa(lp253
I30
aI19
aI0
aI68
aa(lp254
I10
aI6
aI0
aI22
aa(lp255
I44
aI29
aI0
aI102
aa(lp256
I33
aI21
aI0
aI75
aa(lp257
I12
aI6
aI0
aI24
aa(lp258
I18
aI11
aI0
aI40
aa(lp259
I9
aI5
aI0
aI19
aa(lp260
I10
aI6
aI0
aI22
aa(lp261
I33
aI24
aI0
aI81
aa(lp262
I23
aI14
aI0
aI51
aa(lp263
I28
aI15
aI0
aI58
aa(lp264
I11
aI6
aI0
aI23
aa(lp265
I23
aI13
aI0
aI49
aa(lp266
I25
aI16
aI0
aI57
aa(lp267
I31
aI19
aI0
aI69
aa(lp268
I28
aI17
aI0
aI62
aa(lp269
I12
aI8
aI0
aI28
aa(lp270
I21
aI12
aI0
aI45
aa(lp271
I8
aI5
aI0
aI18
aa(lp272
I35
aI20
aI0
aI75
aa(lp273
I25
aI15
aI0
aI55
aa(lp274
I26
aI15
aI0
aI56
aa(lp275
I19
aI11
aI0
aI41
aa(lp276
I42
aI29
aI0
aI100
aa(lp277
I34
aI23
aI0
aI80
aa(lp278
I24
aI14
aI0
aI52
aa(lp279
I17
aI10
aI0
aI37
aa(lp280
I9
aI7
aI0
aI23
aa(lp281
I32
aI20
aI0
aI72
aa(lp282
I27
aI17
aI0
aI61
aa(lp283
I17
aI10
aI0
aI37
aa(lp284
I26
aI15
aI0
aI56
aa(lp285
I35
aI22
aI0
aI79
aa(lp286
I38
aI24
aI0
aI86
aa(lp287
I27
aI17
aI0
aI61
aa(lp288
I18
aI10
aI0
aI38
aa(lp289
I23
aI17
aI0
aI57
aa(lp290
I48
aI31
aI0
aI110
aa(lp291
I52
aI31
aI0
aI114
aa(lp292
I29
aI17
aI0
aI63
aa(lp293
I31
aI19
aI0
aI69
aa(lp294
I17
aI10
aI0
aI37
aa(lp295
I32
aI22
aI0
aI76
aa(lp296
I24
aI16
aI0
aI56
aa(lp297
I28
aI18
aI0
aI64
aa(lp298
I20
aI11
aI0
aI42
aa(lp299
I33
aI18
aI0
aI69
aa(lp300
I22
aI13
aI0
aI48
aa(lp301
I17
aI10
aI0
aI37
aa(lp302
I16
aI10
aI0
aI36
aa(lp303
I11
aI4
aI0
aI19
aa(lp304
I19
aI13
aI0
aI45
aa(lp305
I22
aI15
aI0
aI52
aa(lp306
I17
aI9
aI0
aI35
aa(lp307
I133
aI84
aI0
aI301
aa(lp308
I19
aI11
aI0
aI41
aa(lp309
I36
aI22
aI0
aI80
aa(lp310
I9
aI5
aI0
aI19
aa(lp311
I37
aI23
aI0
aI83
aa(lp312
I23
aI14
aI0
aI51
aa(lp313
I90
aI54
aI0
aI198
aa(lp314
I30
aI19
aI0
aI68
aa(lp315
I42
aI25
aI0
aI92
aa(lp316
I30
aI18
aI0
aI66
aa(lp317
I23
aI13
aI0
aI49
aa(lp318
I42
aI28
aI0
aI98
aa(lp319
I23
aI13
aI0
aI49
aa(lp320
I27
aI18
aI0
aI63
aa(lp321
I17
aI11
aI0
aI39
aa(lp322
I25
aI16
aI0
aI57
aa(lp323
I27
aI19
aI0
aI65
aa(lp324
I31
aI17
aI0
aI65
aa(lp325
I22
aI13
aI0
aI48
aa(lp326
I21
aI15
aI0
aI51
aa(lp327
I28
aI17
aI0
aI62
aa(lp328
I25
aI14
aI0
aI53
aa(lp329
I17
aI10
aI0
aI37
aa(lp330
I21
aI12
aI0
aI45
aa(lp331
I11
aI5
aI0
aI21
aa(lp332
I10
aI5
aI0
aI20
aa(lp333
I43
aI26
aI0
aI95
aa(lp334
I29
aI18
aI0
aI65
aa(lp335
I24
aI15
aI0
aI54
aa(lp336
I27
aI16
aI0
aI59
aa(lp337
I27
aI17
aI0
aI61
aa(lp338
I121
aI75
aI0
aI271
aa(lp339
I9
aI6
aI0
aI21
aa(lp340
I31
aI18
aI0
aI67
aa(lp341
I21
aI13
aI0
aI47
aa(lp342
I23
aI14
aI0
aI51
aa(lp343
I27
aI18
aI0
aI63
aa(lp344
I24
aI14
aI0
aI52
aa(lp345
I16
aI9
aI0
aI34
aa(lp346
I31
aI20
aI0
aI71
aa(lp347
I27
aI16
aI0
aI59
aa(lp348
I27
aI18
aI0
aI63
aa(lp349
I37
aI23
aI0
aI83
aa(lp350
I35
aI19
aI0
aI73
aa(lp351
I32
aI18
aI0
aI68
aa(lp352
I23
aI15
aI0
aI53
aa(lp353
I16
aI10
aI0
aI36
aa(lp354
I17
aI10
aI0
aI37
aa(lp355
I39
aI24
aI0
aI87
aa(lp356
I26
aI16
aI0
aI58
aa(lp357
I23
aI14
aI0
aI51
aa(lp358
I29
aI18
aI0
aI65
aa(lp359
I5
aI4
aI0
aI13
aa(lp360
I17
aI11
aI0
aI39
aa(lp361
I35
aI22
aI0
aI79
aa(lp362
I12
aI7
aI0
aI26
aa(lp363
I32
aI19
aI0
aI70
aa(lp364
I23
aI15
aI0
aI53
aa(lp365
I21
aI12
aI0
aI45
aa(lp366
I37
aI23
aI0
aI83
aa(lp367
I30
aI19
aI0
aI68
aa(lp368
I17
aI11
aI0
aI39
aa(lp369
I32
aI21
aI0
aI74
aa(lp370
I37
aI21
aI0
aI79
aa(lp371
I33
aI21
aI0
aI75
aa(lp372
I31
aI19
aI0
aI69
aa(lp373
I28
aI17
aI0
aI62
aa(lp374
I12
aI7
aI0
aI26
aa(lp375
I10
aI6
aI0
aI22
aa(lp376
I23
aI16
aI0
aI55
aa(lp377
I27
aI19
aI0
aI65
aa(lp378
I31
aI21
aI0
aI73
aa(lp379
I21
aI13
aI0
aI47
aa(lp380
I17
aI12
aI0
aI41
aa(lp381
I35
aI21
aI0
aI77
aa(lp382
I12
aI7
aI0
aI26
aa(lp383
I38
aI23
aI0
aI84
aa(lp384
I36
aI23
aI0
aI82
aa(lp385
I26
aI17
aI0
aI60
aa(lp386
I26
aI15
aI0
aI56
aa(lp387
I9
aI7
aI0
aI23
aa(lp388
I42
aI29
aI0
aI100
aa(lp389
I24
aI16
aI0
aI56
aa(lp390
I8
aI4
aI0
aI16
aa(lp391
I20
aI11
aI0
aI42
aa(lp392
I40
aI22
aI0
aI84
aa(lp393
I33
aI22
aI0
aI77
aa(lp394
I21
aI13
aI0
aI47
aa(lp395
I30
aI18
aI0
aI66
aa(lp396
I26
aI16
aI0
aI58
aa(lp397
I24
aI16
aI0
aI56
aa(lp398
I29
aI16
aI0
aI61
aa(lp399
I25
aI14
aI0
aI53
aa(lp400
I31
aI21
aI0
aI73
aa(lp401
I23
aI14
aI0
aI51
aa(lp402
I32
aI20
aI0
aI72
aa(lp403
I33
aI20
aI0
aI73
aa(lp404
I29
aI17
aI0
aI63
aa(lp405
I31
aI20
aI0
aI71
aa(lp406
I39
aI27
aI0
aI93
aa(lp407
I37
aI21
aI0
aI79
aa(lp408
I21
aI16
aI0
aI53
aa(lp409
I32
aI18
aI0
aI68
aa(lp410
I13
aI8
aI0
aI29
aa(lp411
I31
aI17
aI0
aI65
aa(lp412
I24
aI18
aI0
aI60
aa(lp413
I19
aI13
aI0
aI45
aa(lp414
I32
aI18
aI0
aI68
aa(lp415
I21
aI14
aI0
aI49
aa(lp416
I58
aI37
aI0
aI132
aa(lp417
I8
aI4
aI0
aI16
aa(lp418
I29
aI18
aI0
aI65
aa(lp419
I16
aI10
aI0
aI36
aa(lp420
I28
aI16
aI0
aI60
aa(lp421
I29
aI16
aI0
aI61
aa(lp422
I21
aI13
aI0
aI47
aa(lp423
I40
aI27
aI0
aI94
aa(lp424
I33
aI20
aI0
aI73
aa(lp425
I25
aI16
aI0
aI57
aa(lp426
I20
aI11
aI0
aI42
aa(lp427
I20
aI12
aI0
aI44
aa(lp428
I17
aI10
aI0
aI37
aa(lp429
I14
aI9
aI0
aI32
aa(lp430
I41
aI25
aI0
aI91
aa(lp431
I37
aI21
aI0
aI79
aa(lp432
I28
aI19
aI0
aI66
aa(lp433
I22
aI11
aI0
aI44
aa(lp434
I28
aI17
aI0
aI62
aa(lp435
I27
aI14
aI0
aI55
aa(lp436
I31
aI20
aI0
aI71
aa(lp437
I31
aI19
aI0
aI69
aa(lp438
I15
aI8
aI0
aI31
aa(lp439
I29
aI19
aI0
aI67
aa(lp440
I20
aI12
aI0
aI44
aa(lp441
I33
aI20
aI0
aI73
aa(lp442
I28
aI18
aI0
aI64
aa(lp443
I28
aI18
aI0
aI64
aa(lp444
I12
aI8
aI0
aI28
aa(lp445
I10
aI6
aI0
aI22
aa(lp446
I29
aI18
aI0
aI65
aa(lp447
I27
aI18
aI0
aI63
aa(lp448
I15
aI9
aI0
aI33
aa(lp449
I30
aI17
aI0
aI64
aa(lp450
I35
aI23
aI0
aI81
aa(lp451
I25
aI17
aI0
aI59
aa(lp452
I18
aI10
aI0
aI38
aa(lp453
I32
aI19
aI0
aI70
aa(lp454
I41
aI27
aI0
aI95
aa(lp455
I31
aI20
aI0
aI71
aa(lp456
I40
aI25
aI0
aI90
aa(lp457
I21
aI11
aI0
aI43
aa(lp458
I25
aI14
aI0
aI53
aa(lp459
I20
aI12
aI0
aI44
aa(lp460
I26
aI17
aI0
aI60
aa(lp461
I24
aI17
aI0
aI58
aa(lp462
I32
aI21
aI0
aI74
aa(lp463
I23
aI14
aI0
aI51
aa(lp464
I11
aI6
aI0
aI23
aa(lp465
I37
aI24
aI0
aI85
aa(lp466
I18
aI13
aI0
aI44
aa(lp467
I39
aI25
aI0
aI89
aa(lp468
I26
aI16
aI0
aI58
aa(lp469
I34
aI22
aI0
aI78
aa(lp470
I26
aI16
aI0
aI58
aa(lp471
I33
aI21
aI0
aI75
aa(lp472
I50
aI32
aI0
aI114
aa(lp473
I21
aI13
aI0
aI47
aa(lp474
I15
aI8
aI0
aI31
aa(lp475
I30
aI20
aI0
aI70
aa(lp476
I25
aI15
aI0
aI55
aa(lp477
I25
aI16
aI0
aI57
aa(lp478
I24
aI16
aI0
aI56
aa(lp479
I27
aI18
aI0
aI63
aa(lp480
I15
aI10
aI0
aI35
aa(lp481
I28
aI17
aI0
aI62
aa(lp482
I29
aI20
aI0
aI69
aa(lp483
I39
aI25
aI0
aI89
aa(lp484
I23
aI14
aI0
aI51
aa(lp485
I44
aI29
aI0
aI102
aa(lp486
I24
aI18
aI0
aI60
aa(lp487
I10
aI5
aI0
aI20
aa(lp488
I8
aI5
aI0
aI18
aa(lp489
I34
aI20
aI0
aI74
aa(lp490
I23
aI15
aI0
aI53
aa(lp491
I25
aI15
aI0
aI55
aa(lp492
I10
aI5
aI0
aI20
aa(lp493
I26
aI15
aI0
aI56
aa(lp494
I28
aI19
aI0
aI66
aa(lp495
I27
aI15
aI0
aI57
aa(lp496
I12
aI7
aI0
aI26
aa(lp497
I17
aI10
aI0
aI37
aa(lp498
I30
aI18
aI0
aI66
aa(lp499
I18
aI13
aI0
aI44
aa(lp500
I28
aI17
aI0
aI62
aa(lp501
I29
aI19
aI0
aI67
aa(lp502
I12
aI8
aI0
aI28
aa(lp503
I31
aI17
aI0
aI65
aa(lp504
I8
aI5
aI0
aI18
aa(lp505
I32
aI17
aI0
aI66
aa(lp506
I27
aI16
aI0
aI59
aa(lp507
I18
aI10
aI0
aI38
aa(lp508
I38
aI24
aI0
aI86
aa(lp509
I31
aI19
aI0
aI69
aa(lp510
I15
aI3
aI0
aI21
aa(lp511
I40
aI25
aI0
aI90
aa(lp512
I29
aI20
aI0
aI69
aa(lp513
I27
aI16
aI0
aI59
aa(lp514
I26
aI14
aI0
aI54
aa(lp515
I40
aI24
aI0
aI88
aa(lp516
I29
aI18
aI0
aI65
aa(lp517
I40
aI24
aI0
aI88
aa(lp518
I20
aI12
aI0
aI44
aa(lp519
I35
aI21
aI0
aI77
aa(lp520
I27
aI19
aI0
aI65
aa(lp521
I23
aI15
aI0
aI53
aa(lp522
I38
aI23
aI0
aI84
aa(lp523
I22
aI14
aI0
aI50
aa(lp524
I26
aI16
aI0
aI58
aa(lp525
I22
aI17
aI0
aI56
aa(lp526
I27
aI18
aI0
aI63
aa(lp527
I20
aI11
aI0
aI42
aa(lp528
I9
aI8
aI0
aI25
aa(lp529
I9
aI6
aI0
aI21
aa(lp530
I36
aI22
aI0
aI80
aa(lp531
I28
aI18
aI0
aI64
aa(lp532
I17
aI10
aI0
aI37
aa(lp533
I15
aI10
aI0
aI35
aa(lp534
I12
aI7
aI0
aI26
aa(lp535
I33
aI21
aI0
aI75
aa(lp536
I16
aI9
aI0
aI34
aa(lp537
I30
aI18
aI0
aI66
aa(lp538
I9
aI5
aI0
aI19
aa(lp539
I24
aI14
aI0
aI52
aa(lp540
I18
aI9
aI0
aI36
aa(lp541
I27
aI16
aI0
aI59
aa(lp542
I13
aI9
aI0
aI31
aa(lp543
I16
aI11
aI0
aI38
aa(lp544
I17
aI10
aI0
aI37
aa(lp545
I22
aI16
aI0
aI54
aa(lp546
I16
aI10
aI0
aI36
aa(lp547
I35
aI22
aI0
aI79
aa(lp548
I38
aI25
aI0
aI88
aa(lp549
I30
aI21
aI0
aI72
aa(lp550
I20
aI13
aI0
aI46
aa(lp551
I30
aI19
aI0
aI68
aa(lp552
I26
aI12
aI0
aI50
aa(lp553
I42
aI25
aI0
aI92
aa(lp554
I45
aI27
aI0
aI99
aa(lp555
I21
aI12
aI0
aI45
aa(lp556
I17
aI11
aI0
aI39
aa(lp557
I28
aI18
aI0
aI64
aa(lp558
I33
aI21
aI0
aI75
aa(lp559
I17
aI10
aI0
aI37
aa(lp560
I30
aI18
aI0
aI66
aa(lp561
I21
aI12
aI0
aI45
aa(lp562
I33
aI19
aI0
aI71
aa(lp563
I28
aI17
aI0
aI62
aa(lp564
I35
aI23
aI0
aI81
aa(lp565
I20
aI12
aI0
aI44
aa(lp566
I26
aI16
aI0
aI58
aa(lp567
I9
aI5
aI0
aI19
aa(lp568
I27
aI17
aI0
aI61
aa(lp569
I21
aI11
aI0
aI43
aa(lp570
I21
aI13
aI0
aI47
aa(lp571
I27
aI16
aI0
aI59
aa(lp572
I19
aI12
aI0
aI43
aa(lp573
I28
aI16
aI0
aI60
aa(lp574
I33
aI21
aI0
aI75
aa(lp575
I23
aI16
aI0
aI55
aa(lp576
I14
aI10
aI0
aI34
aa(lp577
I29
aI17
aI0
aI63
aa(lp578
I26
aI16
aI0
aI58
aa(lp579
I23
aI15
aI0
aI53
aa(lp580
I27
aI17
aI0
aI61
aa(lp581
I22
aI14
aI0
aI50
aa(lp582
I30
aI18
aI0
aI66
aa(lp583
I25
aI18
aI0
aI61
aa(lp584
I54
aI34
aI0
aI122
aa(lp585
I10
aI5
aI0
aI20
aa(lp586
I23
aI15
aI0
aI53
aa(lp587
I23
aI14
aI0
aI51
aa(lp588
I23
aI15
aI0
aI53
aa(lp589
I12
aI5
aI0
aI22
aa(lp590
I33
aI21
aI0
aI75
aa(lp591
I12
aI7
aI0
aI26
aa(lp592
I25
aI14
aI0
aI53
aa(lp593
I40
aI22
aI0
aI84
aa(lp594
I28
aI17
aI0
aI62
aa(lp595
I21
aI16
aI0
aI53
aa(lp596
I12
aI7
aI0
aI26
aa(lp597
I17
aI10
aI0
aI37
aa(lp598
I40
aI26
aI0
aI92
aa(lp599
I27
aI17
aI0
aI61
aa(lp600
I42
aI26
aI0
aI94
aa(lp601
I21
aI14
aI0
aI49
aa(lp602
I22
aI16
aI0
aI54
aa(lp603
I22
aI15
aI0
aI52
aa(lp604
I119
aI74
aI0
aI267
aa(lp605
I17
aI10
aI0
aI37
aa(lp606
I16
aI10
aI0
aI36
aa(lp607
I39
aI25
aI0
aI89
aa(lp608
I29
aI17
aI0
aI63
aa(lp609
I23
aI13
aI0
aI49
aa(lp610
I28
aI16
aI0
aI60
aa(lp611
I10
aI5
aI0
aI20
aa(lp612
I32
aI18
aI0
aI68
aa(lp613
I25
aI17
aI0
aI59
aa(lp614
I23
aI15
aI0
aI53
aa(lp615
I21
aI12
aI0
aI45
aa(lp616
I43
aI24
aI0
aI91
aa(lp617
I26
aI16
aI0
aI58
aa(lp618
I25
aI15
aI0
aI55
aa(lp619
I22
aI12
aI0
aI46
aa(lp620
I11
aI7
aI0
aI25
aa(lp621
I10
aI5
aI0
aI20
aa(lp622
I12
aI7
aI0
aI26
aa(lp623
I16
aI7
aI0
aI30
aa(lp624
I39
aI24
aI0
aI87
aa(lp625
I8
aI4
aI0
aI16
aa(lp626
I26
aI16
aI0
aI58
aa(lp627
I30
aI16
aI0
aI62
aa(lp628
I38
aI24
aI0
aI86
aa(lp629
I26
aI14
aI0
aI54
aa(lp630
I9
aI5
aI0
aI19
aa(lp631
I10
aI5
aI0
aI20
aa(lp632
I20
aI11
aI0
aI42
aa(lp633
I10
aI5
aI0
aI20
aa(lp634
I33
aI22
aI0
aI77
aa(lp635
I26
aI17
aI0
aI60
aa(lp636
I36
aI21
aI0
aI78
aa(lp637
I24
aI14
aI0
aI52
aa(lp638
I23
aI17
aI0
aI57
aa(lp639
I37
aI22
aI0
aI81
aa(lp640
I26
aI16
aI0
aI58
aa(lp641
I49
aI32
aI0
aI113
aa(lp642
I6
aI5
aI0
aI16
aa(lp643
I34
aI21
aI0
aI76
aa(lp644
I34
aI23
aI0
aI80
aa(lp645
I30
aI17
aI0
aI64
aa(lp646
I101
aI63
aI0
aI227
aa(lp647
I74
aI41
aI0
aI156
aa(lp648
I54
aI33
aI0
aI120
aa(lp649
I24
aI18
aI0
aI60
aa(lp650
I10
aI6
aI0
aI22
aa(lp651
I10
aI5
aI0
aI20
aa(lp652
I17
aI11
aI0
aI39
aa(lp653
I26
aI13
aI0
aI52
aa(lp654
I23
aI16
aI0
aI55
aa(lp655
I22
aI14
aI0
aI50
aa(lp656
I34
aI22
aI0
aI78
aa(lp657
I37
aI21
aI0
aI79
aa(lp658
I35
aI21
aI0
aI77
aa(lp659
I36
aI19
aI0
aI74
aa(lp660
I35
aI20
aI0
aI75
aa(lp661
I24
aI14
aI0
aI52
aa(lp662
I15
aI11
aI0
aI37
aa(lp663
I11
aI6
aI0
aI23
aa(lp664
I22
aI15
aI0
aI52
aa(lp665
I28
aI18
aI0
aI64
aa(lp666
I26
aI16
aI0
aI58
aa(lp667
I18
aI13
aI0
aI44
aa(lp668
I23
aI15
aI0
aI53
aa(lp669
I15
aI10
aI0
aI35
aa(lp670
I20
aI12
aI0
aI44
aa(lp671
I9
aI5
aI0
aI19
aa(lp672
I10
aI5
aI0
aI20
aa(lp673
I24
aI14
aI0
aI52
aa(lp674
I31
aI17
aI0
aI65
aa(lp675
I26
aI17
aI0
aI60
aa(lp676
I24
aI17
aI0
aI58
aa(lp677
I30
aI16
aI0
aI62
aa(lp678
I29
aI19
aI0
aI67
aa(lp679
I23
aI13
aI0
aI49
aa(lp680
I18
aI11
aI0
aI40
aa(lp681
I17
aI10
aI0
aI37
aa(lp682
I30
aI18
aI0
aI66
aa(lp683
I18
aI11
aI0
aI40
aa(lp684
I14
aI8
aI0
aI30
aa(lp685
I50
aI33
aI0
aI116
aa(lp686
I182
aI120
aI0
aI422
aa(lp687
I24
aI15
aI0
aI54
aa(lp688
I12
aI4
aI0
aI20
aa(lp689
I25
aI16
aI0
aI57
aa(lp690
I8
aI4
aI0
aI16
aa(lp691
I34
aI20
aI0
aI74
aa(lp692
I42
aI25
aI0
aI92
aa(lp693
I17
aI10
aI0
aI37
aa(lp694
I19
aI13
aI0
aI45
aa(lp695
I23
aI14
aI0
aI51
aa(lp696
I22
aI15
aI0
aI52
aa(lp697
I22
aI16
aI0
aI54
aa(lp698
I15
aI9
aI0
aI33
aa(lp699
I28
aI15
aI0
aI58
aa(lp700
I15
aI9
aI0
aI33
aa(lp701
I20
aI13
aI0
aI46
aa(lp702
I19
aI11
aI0
aI41
aa(lp703
I27
aI16
aI0
aI59
aa(lp704
I34
aI20
aI0
aI74
aa(lp705
I25
aI14
aI0
aI53
aa(lp706
I23
aI14
aI0
aI51
aa(lp707
I23
aI14
aI0
aI51
aa(lp708
I10
aI6
aI0
aI22
aa(lp709
I8
aI5
aI0
aI18
aa(lp710
I27
aI15
aI0
aI57
aa(lp711
I26
aI16
aI0
aI58
aa(lp712
I26
aI16
aI0
aI58
aa(lp713
I28
aI19
aI0
aI66
aa(lp714
I20
aI11
aI0
aI42
aa(lp715
I37
aI25
aI0
aI87
aa(lp716
I20
aI12
aI0
aI44
aa(lp717
I41
aI25
aI0
aI91
aa(lp718
I18
aI13
aI0
aI44
aa(lp719
I24
aI15
aI0
aI54
aa(lp720
I21
aI14
aI0
aI49
aa(lp721
I7
aI4
aI0
aI15
aa(lp722
I21
aI12
aI0
aI45
aa(lp723
I11
aI7
aI0
aI25
aa(lp724
I6
aI4
aI0
aI14
aa(lp725
I39
aI26
aI0
aI91
aa(lp726
I31
aI19
aI0
aI69
aa(lp727
I25
aI18
aI0
aI61
aa(lp728
I21
aI13
aI0
aI47
aa(lp729
I18
aI10
aI0
aI38
aa(lp730
I35
aI20
aI0
aI75
aa(lp731
I26
aI18
aI0
aI62
aa(lp732
I20
aI13
aI0
aI46
aa(lp733
I11
aI6
aI0
aI23
aa(lp734
I31
aI19
aI0
aI69
aa(lp735
I28
aI19
aI0
aI66
aa(lp736
I21
aI15
aI0
aI51
aa(lp737
I8
aI5
aI0
aI18
aa(lp738
I28
aI19
aI0
aI66
aa(lp739
I18
aI11
aI0
aI40
aa(lp740
I34
aI23
aI0
aI80
aa(lp741
I36
aI22
aI0
aI80
aa(lp742
I21
aI13
aI0
aI47
aa(lp743
I30
aI18
aI0
aI66
aa(lp744
I25
aI15
aI0
aI55
aa(lp745
I14
aI9
aI0
aI32
aa(lp746
I25
aI15
aI0
aI55
aa(lp747
I61
aI37
aI0
aI135
aa(lp748
I41
aI27
aI0
aI95
aa(lp749
I27
aI17
aI0
aI61
aa(lp750
I25
aI14
aI0
aI53
aa(lp751
I7
aI4
aI0
aI15
aa(lp752
I93
aI57
aI0
aI207
aa(lp753
I20
aI14
aI0
aI48
aa(lp754
I28
aI19
aI0
aI66
aa(lp755
I10
aI5
aI0
aI20
aa(lp756
I29
aI15
aI0
aI59
aa(lp757
I28
aI17
aI0
aI62
aa(lp758
I26
aI16
aI0
aI58
aa(lp759
I22
aI13
aI0
aI48
aa(lp760
I31
aI20
aI0
aI71
aa(lp761
I35
aI22
aI0
aI79
aa(lp762
I26
aI16
aI0
aI58
aa(lp763
I36
aI24
aI0
aI84
aa(lp764
I10
aI7
aI0
aI24
aa(lp765
I42
aI28
aI0
aI98
aa(lp766
I20
aI10
aI0
aI40
aa(lp767
I26
aI17
aI0
aI60
aa(lp768
I29
aI19
aI0
aI67
aa(lp769
I25
aI15
aI0
aI55
aa(lp770
I9
aI5
aI0
aI19
aa(lp771
I23
aI16
aI0
aI55
aa(lp772
I12
aI7
aI0
aI26
aa(lp773
I30
aI15
aI0
aI60
aa(lp774
I22
aI14
aI0
aI50
aa(lp775
I21
aI13
aI0
aI47
aa(lp776
I7
aI4
aI0
aI15
aa(lp777
I30
aI19
aI0
aI68
aa(lp778
I32
aI20
aI0
aI72
aa(lp779
I17
aI12
aI0
aI41
aa(lp780
I27
aI17
aI0
aI61
aa(lp781
I26
aI16
aI0
aI58
aa(lp782
I12
aI5
aI0
aI22
aa(lp783
I19
aI11
aI0
aI41
aa(lp784
I17
aI10
aI0
aI37
aa(lp785
I22
aI13
aI0
aI48
aa(lp786
I29
aI18
aI0
aI65
aa(lp787
I33
aI18
aI0
aI69
aa(lp788
I22
aI14
aI0
aI50
aa(lp789
I25
aI14
aI0
aI53
aa(lp790
I30
aI18
aI0
aI66
aa(lp791
I21
aI11
aI0
aI43
aa(lp792
I13
aI6
aI0
aI25
aa(lp793
I23
aI16
aI0
aI55
aa(lp794
I28
aI19
aI0
aI66
aa(lp795
I30
aI20
aI0
aI70
aa(lp796
I18
aI12
aI0
aI42
aa(lp797
I15
aI9
aI0
aI33
aa(lp798
I34
aI20
aI0
aI74
aa(lp799
I44
aI27
aI0
aI98
aa(lp800
I54
aI30
aI0
aI114
aa(lp801
I30
aI19
aI0
aI68
aa(lp802
I20
aI11
aI0
aI42
aa(lp803
I25
aI16
aI0
aI57
aa(lp804
I25
aI15
aI0
aI55
aa(lp805
I27
aI16
aI0
aI59
aa(lp806
I9
aI5
aI0
aI19
aa(lp807
I10
aI6
aI0
aI22
aa(lp808
I31
aI19
aI0
aI69
aa(lp809
I22
aI16
aI0
aI54
aa(lp810
I10
aI5
aI0
aI20
aa(lp811
I9
aI4
aI0
aI17
aa(lp812
I23
aI14
aI0
aI51
aa(lp813
I23
aI15
aI0
aI53
aa(lp814
I19
aI11
aI0
aI41
aa(lp815
I23
aI14
aI0
aI51
aa(lp816
I29
aI17
aI0
aI63
aa(lp817
I29
aI18
aI0
aI65
aa(lp818
I17
aI9
aI0
aI35
aa(lp819
I27
aI17
aI0
aI61
aa(lp820
I43
aI27
aI0
aI97
aa(lp821
I34
aI21
aI0
aI76
aa(lp822
I24
aI15
aI0
aI54
aa(lp823
I24
aI16
aI0
aI56
aa(lp824
I13
aI9
aI0
aI31
aa(lp825
I41
aI24
aI0
aI89
aa(lp826
I19
aI12
aI0
aI43
aa(lp827
I15
aI10
aI0
aI35
aa(lp828
I28
aI15
aI0
aI58
aa(lp829
I18
aI11
aI0
aI40
aa(lp830
I19
aI12
aI0
aI43
aa(lp831
I18
aI12
aI0
aI42
aa(lp832
I15
aI9
aI0
aI33
aa(lp833
I22
aI14
aI0
aI50
aa(lp834
I30
aI18
aI0
aI66
aa(lp835
I13
aI9
aI0
aI31
aa(lp836
I38
aI24
aI0
aI86
aa(lp837
I18
aI13
aI0
aI44
aa(lp838
I18
aI12
aI0
aI42
aa(lp839
I40
aI24
aI0
aI88
aa(lp840
I12
aI7
aI0
aI26
aa(lp841
I22
aI14
aI0
aI50
aa(lp842
I26
aI17
aI0
aI60
aa(lp843
I12
aI6
aI0
aI24
aa(lp844
I25
aI17
aI0
aI59
aa(lp845
I35
aI21
aI0
aI77
aa(lp846
I10
aI5
aI0
aI20
aa(lp847
I38
aI24
aI0
aI86
aa(lp848
I26
aI14
aI0
aI54
aa(lp849
I10
aI5
aI0
aI20
aa(lp850
I9
aI7
aI0
aI23
aa(lp851
I41
aI27
aI0
aI95
aa(lp852
I22
aI13
aI0
aI48
aa(lp853
I27
aI16
aI0
aI59
aa(lp854
I27
aI17
aI0
aI61
aa(lp855
I23
aI15
aI0
aI53
aa(lp856
I27
aI16
aI0
aI59
aa(lp857
I25
aI16
aI0
aI57
aa(lp858
I24
aI15
aI0
aI54
aa(lp859
I12
aI5
aI0
aI22
aa(lp860
I30
aI18
aI0
aI66
aa(lp861
I23
aI14
aI0
aI51
aa(lp862
I25
aI15
aI0
aI55
aa(lp863
I21
aI12
aI0
aI45
aa(lp864
I27
aI18
aI0
aI63
aa(lp865
I43
aI30
aI0
aI103
aa(lp866
I16
aI10
aI0
aI36
aa(lp867
I29
aI17
aI0
aI63
aa(lp868
I10
aI5
aI0
aI20
aa(lp869
I23
aI14
aI0
aI51
aa(lp870
I32
aI21
aI0
aI74
aa(lp871
I22
aI15
aI0
aI52
aa(lp872
I15
aI9
aI0
aI33
aa(lp873
I16
aI9
aI0
aI34
aa(lp874
I29
aI19
aI0
aI67
aa(lp875
I15
aI9
aI0
aI33
aa(lp876
I39
aI26
aI0
aI91
aa(lp877
I30
aI20
aI0
aI70
aa(lp878
I17
aI10
aI0
aI37
aa(lp879
I34
aI20
aI0
aI74
aa(lp880
I24
aI13
aI0
aI50
aa(lp881
I27
aI18
aI0
aI63
aa(lp882
I8
aI5
aI0
aI18
aa(lp883
I24
aI16
aI0
aI56
aa(lp884
I26
aI17
aI0
aI60
aa(lp885
I24
aI14
aI0
aI52
aa(lp886
I28
aI19
aI0
aI66
aa(lp887
I26
aI17
aI0
aI60
aa(lp888
I7
aI4
aI0
aI15
aa(lp889
I28
aI19
aI0
aI66
aa(lp890
I30
aI19
aI0
aI68
aa(lp891
I31
aI14
aI0
aI59
aa(lp892
I26
aI15
aI0
aI56
aa(lp893
I32
aI19
aI0
aI70
aa(lp894
I34
aI18
aI0
aI70
aa(lp895
I56
aI33
aI0
aI122
aa(lp896
I29
aI18
aI0
aI65
aa(lp897
I24
aI15
aI0
aI54
aa(lp898
I23
aI15
aI0
aI53
aa(lp899
I24
aI16
aI0
aI56
aa(lp900
I31
aI18
aI0
aI67
aa(lp901
I19
aI13
aI0
aI45
aa.